; Function Attrs: mustprogress uwtable
define noundef double @_ZNK8QuantLib27AnalyticDoubleBarrierEngine12residualTimeEv(ptr nocapture noundef nonnull readonly align 8 dereferenceable(452) %this) local_unnamed_addr #8 align 2 {
entry:
  %ref.tmp = alloca %"class.QuantLib::Date", align 8
  %process_ = getelementptr inbounds nuw i8, ptr %this, i64 368
  %0 = load ptr, ptr %process_, align 8, !tbaa !39
  %cmp.not.i = icmp eq ptr %0, null
  br i1 %cmp.not.i, label %cond.false.i, label %_ZNK5boost10shared_ptrIN8QuantLib30GeneralizedBlackScholesProcessEEptEv.exit, !prof !86

cond.false.i:                                     ; preds = %entry
  tail call void @_ZN5boost16assertion_failedEPKcS1_S1_l(ptr noundef nonnull @.str.21, ptr noundef nonnull @__PRETTY_FUNCTION__._ZNK5boost10shared_ptrIN8QuantLib30GeneralizedBlackScholesProcessEEptEv, ptr noundef nonnull @.str.22, i64 noundef 784)
  %.pre.i = load ptr, ptr %process_, align 8, !tbaa !39
  br label %_ZNK5boost10shared_ptrIN8QuantLib30GeneralizedBlackScholesProcessEEptEv.exit

_ZNK5boost10shared_ptrIN8QuantLib30GeneralizedBlackScholesProcessEEptEv.exit: ; preds = %entry, %cond.false.i
  %1 = phi ptr [ %0, %entry ], [ %.pre.i, %cond.false.i ]
  call void @llvm.lifetime.start.p0(i64 8, ptr nonnull %ref.tmp) #27
  %exercise = getelementptr inbounds nuw i8, ptr %this, i64 136
  %2 = load ptr, ptr %exercise, align 8, !tbaa !85
  %cmp.not.i1 = icmp eq ptr %2, null
  br i1 %cmp.not.i1, label %cond.false.i2, label %_ZNK5boost10shared_ptrIN8QuantLib8ExerciseEEptEv.exit, !prof !86

cond.false.i2:                                    ; preds = %_ZNK5boost10shared_ptrIN8QuantLib30GeneralizedBlackScholesProcessEEptEv.exit
  tail call void @_ZN5boost16assertion_failedEPKcS1_S1_l(ptr noundef nonnull @.str.21, ptr noundef nonnull @__PRETTY_FUNCTION__._ZNK5boost10shared_ptrIN8QuantLib8ExerciseEEptEv, ptr noundef nonnull @.str.22, i64 noundef 784)
  %.pre.i3 = load ptr, ptr %exercise, align 8, !tbaa !85
  br label %_ZNK5boost10shared_ptrIN8QuantLib8ExerciseEEptEv.exit

_ZNK5boost10shared_ptrIN8QuantLib8ExerciseEEptEv.exit: ; preds = %_ZNK5boost10shared_ptrIN8QuantLib30GeneralizedBlackScholesProcessEEptEv.exit, %cond.false.i2
  %3 = phi ptr [ %2, %_ZNK5boost10shared_ptrIN8QuantLib30GeneralizedBlackScholesProcessEEptEv.exit ], [ %.pre.i3, %cond.false.i2 ]
  %call3 = tail call i64 @_ZNK8QuantLib8Exercise8lastDateEv(ptr noundef nonnull align 8 dereferenceable(36) %3)
  store i64 %call3, ptr %ref.tmp, align 8
  %vtable = load ptr, ptr %1, align 8, !tbaa !35
  %vfn = getelementptr inbounds i8, ptr %vtable, i64 112
  %4 = load ptr, ptr %vfn, align 8
  %call4 = call noundef double %4(ptr noundef nonnull align 8 dereferenceable(250) %1, ptr noundef nonnull align 8 dereferenceable(8) %ref.tmp)
  call void @llvm.lifetime.end.p0(i64 8, ptr nonnull %ref.tmp) #27
  ret double %call4
}